target datalayout = "e-m:e-p270:32:32-p271:32:32-p272:64:64-i64:64-i128:128-f80:128-n8:16:32:64-S128"
target triple = "x86_64-pc-linux-gnu"

; Function Attrs: inlinehint mustprogress nounwind uwtable
define internal noundef signext i8 @_ZL9U_FAILURE10UErrorCode(i32 noundef %0) #4 {
  %2 = alloca i32, align 4
  store i32 %0, ptr %2, align 4, !tbaa !30
  %3 = load i32, ptr %2, align 4, !tbaa !30
  %4 = icmp sgt i32 %3, 0
  %5 = zext i1 %4 to i8
  ret i8 %5
}

; Function Attrs: mustprogress uwtable
define noundef zeroext i1 @_ZNK6icu_7715ChineseCalendar18inTemporalLeapYearER10UErrorCode(ptr noundef nonnull align 8 dereferenceable(193) %0, ptr noundef nonnull align 4 dereferenceable(4) %1) unnamed_addr #0 align 2 {
  %3 = alloca i1, align 1
  %4 = alloca ptr, align 8
  %5 = alloca ptr, align 8
  %6 = alloca i32, align 4
  %7 = alloca i32, align 4
  store ptr %0, ptr %4, align 8, !tbaa !3
  store ptr %1, ptr %5, align 8, !tbaa !10
  %8 = load ptr, ptr %4, align 8
  call void @llvm.lifetime.start.p0(i64 4, ptr %6) #13
  %9 = load ptr, ptr %5, align 8, !tbaa !10
  %10 = load ptr, ptr %8, align 8, !tbaa !11
  %11 = getelementptr inbounds ptr, ptr %10, i64 22
  %12 = load ptr, ptr %11, align 8
  %13 = call noundef i32 %12(ptr noundef nonnull align 8 dereferenceable(193) %8, i32 noundef 6, ptr noundef nonnull align 4 dereferenceable(4) %9)
  store i32 %13, ptr %6, align 4, !tbaa !29
  %14 = load ptr, ptr %5, align 8, !tbaa !10
  %15 = load i32, ptr %14, align 4, !tbaa !30
  %16 = call noundef signext i8 @_ZL9U_FAILURE10UErrorCode(i32 noundef %15)
  %17 = icmp ne i8 %16, 0
  br i1 %17, label %18, label %19

18:                                               ; preds = %2
  store i1 false, ptr %3, align 1
  store i32 1, ptr %7, align 4
  br label %22

19:                                               ; preds = %2
  %20 = load i32, ptr %6, align 4, !tbaa !29
  %21 = icmp sgt i32 %20, 360
  store i1 %21, ptr %3, align 1
  store i32 1, ptr %7, align 4
  br label %22

22:                                               ; preds = %19, %18
  call void @llvm.lifetime.end.p0(i64 4, ptr %6) #13
  %23 = load i1, ptr %3, align 1
  ret i1 %23
}