; Function Attrs: mustprogress uwtable
define noundef zeroext i1 @_ZNK6icu_7715ChineseCalendar18inTemporalLeapYearER10UErrorCode(ptr noundef nonnull align 8 dereferenceable(193) %0, ptr noundef nonnull align 4 dereferenceable(4) %1) unnamed_addr #0 align 2 {
  %3 = load ptr, ptr %0, align 8, !tbaa !3
  %4 = getelementptr inbounds nuw i8, ptr %3, i64 176
  %5 = load ptr, ptr %4, align 8
  %6 = tail call noundef i32 %5(ptr noundef nonnull align 8 dereferenceable(193) %0, i32 noundef 6, ptr noundef nonnull align 4 dereferenceable(4) %1)
  %7 = load i32, ptr %1, align 4, !tbaa !21
  %8 = icmp slt i32 %7, 1
  %9 = icmp sgt i32 %6, 360
  %.0 = and i1 %9, %8
  ret i1 %.0
}